target datalayout = "e-m:e-p270:32:32-p271:32:32-p272:64:64-i64:64-i128:128-f80:128-n8:16:32:64-S128"
target triple = "x86_64-pc-linux-gnu"

%struct.display_data = type { i64, i32, ptr, i8, i32, ptr, ptr, ptr, ptr, ptr, ptr, ptr, ptr }

; Function Attrs: nounwind uwtable
define dso_local ptr @find_col_name(ptr noundef %0, i32 noundef %1) #0 {
  %3 = alloca ptr, align 8
  %4 = alloca ptr, align 8
  %5 = alloca i32, align 4
  store ptr %0, ptr %4, align 8
  store i32 %1, ptr %5, align 4
  br label %6

6:                                                ; preds = %26, %2
  %7 = load ptr, ptr %4, align 8
  %8 = getelementptr inbounds nuw %struct.display_data, ptr %7, i32 1
  store ptr %8, ptr %4, align 8
  %9 = icmp ne ptr %7, null
  br i1 %9, label %10, label %27

10:                                               ; preds = %6
  %11 = load ptr, ptr %4, align 8
  %12 = getelementptr inbounds nuw %struct.display_data, ptr %11, i32 0, i32 1
  %13 = load i32, ptr %12, align 8
  %14 = icmp eq i32 %13, -1
  br i1 %14, label %15, label %16

15:                                               ; preds = %10
  br label %27

16:                                               ; preds = %10
  %17 = load ptr, ptr %4, align 8
  %18 = getelementptr inbounds nuw %struct.display_data, ptr %17, i32 0, i32 1
  %19 = load i32, ptr %18, align 8
  %20 = load i32, ptr %5, align 4
  %21 = icmp eq i32 %19, %20
  br i1 %21, label %22, label %26

22:                                               ; preds = %16
  %23 = load ptr, ptr %4, align 8
  %24 = getelementptr inbounds nuw %struct.display_data, ptr %23, i32 0, i32 2
  %25 = load ptr, ptr %24, align 8
  store ptr %25, ptr %3, align 8
  br label %28

26:                                               ; preds = %16
  br label %6, !llvm.loop !19

27:                                               ; preds = %15, %6
  store ptr null, ptr %3, align 8
  br label %28

28:                                               ; preds = %27, %22
  %29 = load ptr, ptr %3, align 8
  ret ptr %29
}