; Function Attrs: nofree norecurse nosync nounwind memory(argmem: read) uwtable
define dso_local ptr @find_col_name(ptr noundef readonly captures(address) %0, i32 noundef %1) local_unnamed_addr #5 {
  br label %3

3:                                                ; preds = %9, %2
  %.05 = phi ptr [ %0, %2 ], [ %4, %9 ]
  %4 = getelementptr inbounds nuw i8, ptr %.05, i64 96
  %.not = icmp eq ptr %.05, null
  br i1 %.not, label %.loopexit, label %5

5:                                                ; preds = %3
  %6 = getelementptr inbounds nuw i8, ptr %.05, i64 104
  %7 = load i32, ptr %6, align 8
  %8 = icmp eq i32 %7, -1
  br i1 %8, label %.loopexit, label %9

9:                                                ; preds = %5
  %10 = icmp eq i32 %7, %1
  br i1 %10, label %11, label %3, !llvm.loop !17

11:                                               ; preds = %9
  %12 = getelementptr inbounds nuw i8, ptr %.05, i64 112
  %13 = load ptr, ptr %12, align 8
  br label %.loopexit

.loopexit:                                        ; preds = %3, %5, %11
  %.0 = phi ptr [ %13, %11 ], [ null, %5 ], [ null, %3 ]
  ret ptr %.0
}